
Allocating common symbols
Common symbol       size              file

i3c_master_task_attr
                    0x24              built-in.o
snoop_tattr         0x24              built-in.o
kcs_tid             0x4               built-in.o
jtag                0x8               built-in.o
i3c_task_id         0x4               built-in.o
pcc_tattr           0x24              built-in.o
cInputHistory       0x1f4             built-in.o
optarg              0x4               built-in.o
kcs_tattr           0x24              built-in.o
i3c_test_id         0x4               built-in.o
i3c_master_task_id  0x4               built-in.o
cInputString        0x32              built-in.o
tid_task            0x4               built-in.o
espi_base           0x4               built-in.o
g_pwm_tach_priv     0x84              built-in.o
snoop_tid           0x4               built-in.o
tach                0x40              built-in.o
adc                 0x8               built-in.o
bt_tid              0x4               built-in.o
i2c                 0x13c0            built-in.o
pcc_tid             0x4               built-in.o
i3c_test_attr       0x24              built-in.o
i3c_task_attr       0x24              built-in.o
pwm                 0x40              built-in.o
tattr_task          0x24              built-in.o
espi_tid            0x4               built-in.o
espi_tattr          0x24              built-in.o
optopt              0x4               built-in.o
argv_list           0x28              built-in.o
o_peci              0x4               built-in.o
bt_tattr            0x24              built-in.o

Memory Configuration

Name             Origin             Length             Attributes
sram             0x0000000000000000 0x0000000000070000 xrw
sram_nc          0x0000000000070000 0x0000000000050000 rw
*default*        0x0000000000000000 0xffffffffffffffff

Linker script and memory map


.text           0x0000000000000000    0x1af61
                0x0000000000000000                _stext = .
 *(.vectors)
 .vectors       0x0000000000000000      0x400 built-in.o
                0x0000000000000000                __Vectors
                0x0000000000000400                __Vectors_End = .
                0x0000000000000400                __Vectors_Size = (__Vectors_End - __Vectors)
                0x0000000000022778                __end__ = .
 *(.sboot)
 .sboot         0x0000000000000400       0x20 built-in.o
                0x0000000000000400                sbh
 *(.text)
 .text          0x0000000000000420    0x15638 built-in.o
                0x0000000000000422                DebugMon_Handler
                0x0000000000000422                PendSV_Handler
                0x0000000000000422                NMI_Handler
                0x0000000000000422                UsageFault_Handler
                0x0000000000000422                Default_Handler
                0x0000000000000422                MemManage_Handler
                0x0000000000000422                BusFault_Handler
                0x0000000000000424                Reset_Handler
                0x0000000000000480                SystemCoreClockUpdate
                0x0000000000000490                SystemInit
                0x00000000000004c4                aspeed_reset_assert
                0x00000000000004d2                aspeed_reset_deassert
                0x00000000000004e2                aspeed_irq_get_current_irq
                0x00000000000004f4                aspeed_irq_register
                0x0000000000000530                aspeed_irq_deregister
                0x0000000000000574                aspeed_irq_get_isr_context
                0x0000000000000584                aspeed_irq_init
                0x0000000000000960                aspeed_kcs_read
                0x00000000000009c4                aspeed_kcs_write
                0x0000000000000a18                aspeed_kcs_init
                0x0000000000000b0c                aspeed_bt_read
                0x0000000000000b84                aspeed_bt_write
                0x0000000000000be8                aspeed_bt_init
                0x0000000000000d54                aspeed_snoop_read
                0x0000000000000dc8                aspeed_snoop_init
                0x0000000000000ee4                aspeed_pcc_read
                0x0000000000000f3c                aspeed_pcc_init
                0x0000000000001054                aspeed_print_soc_id
                0x00000000000010a8                aspeed_print_sysrst_info
                0x00000000000012f8                aspeed_print_security_info
                0x0000000000001420                aspeed_print_2nd_wdt_mode
                0x00000000000014b0                aspeed_print_fmc_aux_ctrl
                0x0000000000001534                aspeed_print_spi1_abr_mode
                0x00000000000015fc                aspeed_print_spi1_aux_ctrl
                0x0000000000001680                aspeed_print_spi_strap_mode
                0x00000000000016a0                aspeed_print_espi_mode
                0x0000000000001758                aspeed_pinctrl_sig_request
                0x000000000000181c                aspeed_pinctrl_fn_group_request
                0x0000000000001870                aspeed_pinctrl_init
                0x0000000000001884                aspeed_clk_get_hclk
                0x000000000000188c                aspeed_clk_get_pclk
                0x0000000000001894                aspeed_clk_get_uart_clk
                0x00000000000018c4                aspeed_clk_enable
                0x00000000000018d2                aspeed_clk_disable
                0x00000000000018e0                aspeed_clk_set_rgmii_delay
                0x0000000000001920                aspeed_timer_init
                0x0000000000001980                aspeed_timer_wait_us
                0x00000000000019c2                aspeed_timer_wait_ms
                0x00000000000019e4                aspeed_wait_ms
                0x00000000000019f4                aspeed_wait_init_timer
                0x0000000000001a20                aspeed_wait_us
                0x0000000000001a64                aspeed_cache_init
                0x0000000000001ad0                aspeed_cache_invalid_data
                0x0000000000001b38                aspeed_cache_invalid_instruct
                0x0000000000001b90                aspeed_cache_clear_data
                0x0000000000001bbc                aspeed_cache_clear_instruct
                0x0000000000001be8                aspeed_cache_flush_prefetch
                0x0000000000001bec                aspeed_cache_dma_mem_read
                0x0000000000001c14                aspeed_uart_init
                0x0000000000001c90                aspeed_uart_putc
                0x0000000000001cae                aspeed_uart_getc
                0x0000000000001cca                aspeed_uart_gets
                0x0000000000001d44                putchar
                0x0000000000001d68                puts
                0x0000000000001d7a                xSerialPortInitMinimal
                0x0000000000001d7e                xSerialGetChar
                0x0000000000001da0                vSerialPutString
                0x0000000000001daa                xSerialPutChar
                0x0000000000001db6                vSerialClose
                0x0000000000001db8                serial_init_direct
                0x0000000000001e48                aspeed_gpio_cmd_src_set
                0x0000000000001e94                aspeed_gpio_int_cb_hook
                0x0000000000001f08                aspeed_gpio_int_cb_unhook
                0x0000000000001f74                aspeed_gpio_get
                0x0000000000001fe0                aspeed_gpio_set
                0x000000000000203c                aspeed_gpio_set_direction
                0x0000000000002178                aspeed_gpio_info
                0x00000000000021ae                aspeed_gpio_pin_request
                0x00000000000021b2                aspeed_gpio_set_config
                0x00000000000021b6                aspeed_gpio_init
                0x0000000000002320                aspeed_sgpiom_set_direction
                0x0000000000002324                aspeed_sgpiom_int_cb_hook
                0x00000000000023cc                aspeed_sgpiom_int_cb_unhook
                0x0000000000002428                aspeed_sgpiom_get
                0x0000000000002494                aspeed_sgpiom_set
                0x000000000000256c                aspeed_sgpiom_info
                0x00000000000025a2                aspeed_sgpiom_set_config
                0x00000000000025a6                aspeed_sgpiom_get_clk_div
                0x00000000000025c0                aspeed_sgpiom_init
                0x0000000000002e54                aspeed_i3c_global_init
                0x0000000000002eac                aspeed_i3c_send_setaasa
                0x0000000000002ef8                aspeed_i3c_send_enec
                0x0000000000002f54                aspeed_i3c_send_setmrl
                0x0000000000002fcc                aspeed_i3c_send_getmrl
                0x0000000000003038                aspeed_i3c_isr_common
                0x00000000000030e4                aspeed_i3c_isr
                0x00000000000030f6                aspeed_i3c_init
                0x00000000000032c0                aspeed_i3c_priv_xfer
                0x00000000000033ec                aspeed_i3c_i2c_read
                0x00000000000034b8                aspeed_i3c_i2c_write
                0x0000000000003570                aspeed_i3c_slave_issue_sir
                0x00000000000035a4                aspeed_i3c_slave_wr_resp
                0x000000000000363c                i3c_init_direct
                0x000000000000363e                i3c_spd_read
                0x000000000000366c                i3c_spd_byte_read
                0x0000000000003684                i3c_spd_write
                0x00000000000036d6                i3c_spd_byte_write
                0x00000000000036ec                i3c_init
                0x0000000000003720                i3c_free
                0x0000000000003734                i3c_mqueue_receive
                0x0000000000003a64                i2c_global_init
                0x0000000000003aa8                aspeed_i2c_master_irq
                0x0000000000003dac                aspeed_i2c_slave_irq
                0x0000000000004186                aspeed_i2c0_isr
                0x00000000000041a0                aspeed_i2c1_isr
                0x00000000000041ba                aspeed_i2c2_isr
                0x00000000000041d4                aspeed_i2c3_isr
                0x00000000000041ee                aspeed_i2c4_isr
                0x0000000000004208                aspeed_i2c5_isr
                0x0000000000004222                aspeed_i2c6_isr
                0x000000000000423c                aspeed_i2c7_isr
                0x0000000000004256                aspeed_i2c8_isr
                0x0000000000004270                aspeed_i2c9_isr
                0x000000000000428a                aspeed_i2c10_isr
                0x00000000000042a4                aspeed_i2c11_isr
                0x00000000000042be                aspeed_i2c12_isr
                0x00000000000042d8                aspeed_i2c13_isr
                0x00000000000042f2                aspeed_i2c14_isr
                0x000000000000430c                aspeed_i2c15_isr
                0x0000000000004326                i2c_slave_mqueue_read
                0x00000000000043d0                i2c_slave_mode
                0x0000000000004444                i2c_slave_address
                0x000000000000448c                i2c_snoop_mode
                0x00000000000044c8                i2c_snoop_read
                0x00000000000044f4                i2c_mailbox_address
                0x0000000000004548                i2c_mailbox_mode
                0x0000000000004564                i2c_white_list
                0x0000000000004586                i2c_reset
                0x0000000000004598                i2c_dma_read
                0x000000000000463c                i2c_buff_read
                0x00000000000046e0                i2c_byte_read
                0x0000000000004754                i2c_read
                0x000000000000477e                i2c_dma_write
                0x0000000000004814                i2c_buff_write
                0x00000000000048fc                i2c_byte_write
                0x0000000000004974                i2c_write
                0x000000000000499e                i2c_frequency
                0x00000000000049ac                aspeed_i2c_recover_bus
                0x0000000000004a5c                aspeed_i2c_bus_reset
                0x0000000000004a6c                i2c_init
                0x0000000000004bfc                aspeed_espi_init
                0x0000000000004cd8                aspeed_espi_perif_pc_get_rx
                0x0000000000004da4                aspeed_espi_perif_pc_put_tx
                0x0000000000004e20                aspeed_espi_perif_np_put_tx
                0x0000000000004e9c                aspeed_espi_perif_init
                0x0000000000004f9c                aspeed_espi_vw_init
                0x00000000000050e8                aspeed_espi_oob_get_rx
                0x0000000000005220                aspeed_espi_oob_put_tx
                0x0000000000005324                aspeed_espi_oob_init
                0x0000000000005464                aspeed_espi_flash_get_rx
                0x000000000000552c                aspeed_espi_flash_put_tx
                0x00000000000055a8                aspeed_espi_flash_init
                0x000000000000568c                aspeed_peci_int_cb_hook
                0x00000000000056b8                aspeed_peci_int_cb_unhook
                0x00000000000056e2                aspeed_get_expected_fcs
                0x000000000000571c                aspeed_get_captured_fcs
                0x0000000000005758                aspeed_peci_clk_set
                0x0000000000005840                aspeed_peci_init
                0x000000000000590c                aspeed_peci_xfer
                0x0000000000005c10                aspeed_g_pwm_tach_get_pwm_status
                0x0000000000005c18                aspeed_g_pwm_tach_get_tach_status
                0x0000000000005c20                aspeed_pwm_set_freq
                0x0000000000005d38                aspeed_pwm_init
                0x0000000000005e40                aspeed_pwm_set_duty
                0x0000000000005ec4                aspeed_pwm_get_duty
                0x0000000000005f1c                aspeed_tach_int_cb_hook
                0x0000000000006004                aspeed_tach_int_cb_unhook
                0x0000000000006022                aspeed_tach_init
                0x000000000000611c                aspeed_tach_get_rpm
                0x0000000000006404                aspeed_adc_read
                0x0000000000006444                aspeed_adc_read_mv
                0x0000000000006458                aspeed_adc_get_clk_rate
                0x0000000000006460                aspeed_adc_get_sampling_rate
                0x0000000000006468                aspeed_adc_set_clk_rate
                0x00000000000064d8                aspeed_adc_init
                0x0000000000006616                tap_state_name
                0x00000000000068a8                tap_state_by_name
                0x00000000000068d8                aspeed_jtag_ir_scan
                0x0000000000006900                aspeed_jtag_dr_scan
                0x000000000000692c                aspeed_jtag_set_clk
                0x000000000000698c                aspeed_jtag_tap_is_stable
                0x0000000000006a84                aspeed_jtag_get_tap_state
                0x0000000000006a8e                aspeed_jtag_run_test
                0x0000000000006aaa                aspeed_jtag_set_tap_state
                0x0000000000006b0c                aspeed_jtag_target_init
                0x0000000000006b20                aspeed_jtag_init
                0x0000000000006b68                aspeed_usb_ep_handle
                0x0000000000006b84                aspeed_usb_setup_handle
                0x0000000000006c2a                aspeed_usb_handler
                0x0000000000006d60                aspeed_usb_isr
                0x0000000000006d6e                aspeed_ep_read
                0x0000000000006dc4                aspeed_ep_write
                0x0000000000006e20                aspeed_usb_ep_configure
                0x0000000000006efc                aspeed_usb_connect
                0x0000000000006f0a                aspeed_usb_disconnect
                0x0000000000006f18                aspeed_usb_init
                0x0000000000007002                aspeed_cdc_setup
                0x0000000000007130                usbtty_init_strings
                0x000000000000721c                usb_init
                0x0000000000007248                usb_acquire
                0x000000000000725a                usb_release
                0x0000000000007268                usb_connect
                0x0000000000007290                usb_disconnect
                0x00000000000072b8                usb_read
                0x00000000000072f4                usb_write
                0x00000000000076b0                aspeed_get_flash_id
                0x00000000000076ec                read_sr
                0x000000000000770c                read_cr
                0x0000000000007726                spi_nor_wait_ready
                0x0000000000007744                write_enable
                0x0000000000007752                write_disable
                0x0000000000007760                write_sr_cr
                0x000000000000777e                spansion_no_read_cr_quad_enable
                0x00000000000077a0                spansion_read_cr_quad_enable
                0x00000000000077f8                write_sr
                0x0000000000007812                macronix_quad_enable
                0x0000000000007864                spi_nor_detect_flash_exist_roughly
                0x000000000000789a                set_4byte
                0x0000000000007948                spi_nor_hwcaps_pp2cmd
                0x0000000000007958                spi_nor_hwcaps_erase2cmd
                0x0000000000007968                spi_nor_convert_3to4_program
                0x0000000000007978                spi_nor_select_read
                0x00000000000079cc                spi_nor_select_pp
                0x0000000000007a1c                spi_nor_select_erase
                0x0000000000007a6c                aspeed_get_flash_param_from_ids
                0x0000000000007b30                spi_nor_parse_4bait
                0x0000000000007e7c                aspeed_flash_param_init
                0x0000000000008024                aspeed_flash_probe
                0x0000000000008220                aspeed_spi_flash_write
                0x0000000000008248                aspeed_spi_flash_erase
                0x00000000000082bc                ast2600_segment_addr_start
                0x00000000000082c4                ast2600_segment_addr_end
                0x00000000000082d2                ast2600_segment_addr_val
                0x00000000000082e2                ast1030_fmc_segment_addr_start
                0x00000000000082f0                ast1030_fmc_segment_addr_end
                0x0000000000008304                ast1030_fmc_segment_addr_val
                0x0000000000008314                ast1030_spi_segment_addr_start
                0x000000000000831c                ast1030_spi_segment_addr_end
                0x000000000000832a                ast1030_spi_segment_addr_val
                0x000000000000833a                aspeed_spi_get_io_mode
                0x000000000000834c                aspeed_spi_set_4byte_mode
                0x0000000000008388                aspeed_spi_write_data
                0x00000000000083ca                aspeed_spi_read_data
                0x0000000000008418                aspeed_spi_xfer
                0x00000000000084d0                aspeed_spi_start_user
                0x0000000000008526                aspeed_spi_stop_user
                0x000000000000854a                aspeed_spi_flash_read_reg
                0x0000000000008580                aspeed_spi_flash_write_reg
                0x00000000000085b6                aspeed_spi_send_cmd_addr
                0x000000000000864c                aspeed_spi_flash_read
                0x00000000000086c0                aspeed_spi_flash_write_internal
                0x000000000000870e                aspeed_get_spi_freq_div
                0x00000000000087a8                aspeed_spi_decode_range_reinit
                0x00000000000088e4                aspeed_spi_flash_info_deploy
                0x000000000000894a                aspeed_decode_range_pre_init
                0x0000000000008a24                aspeed_spi_fill_safs_cmd
                0x0000000000008aa0                aspeed_spi_ctrl_init
                0x0000000000008b1e                aspeed_spi_driver_caps
                0x0000000000008b28                aspeed_spi_init
                0x0000000000008b34                board_early_init
                0x0000000000008ba0                board_show_info
                0x0000000000009480                __wrap_printf
                0x00000000000094ac                __wrap_sprintf
                0x00000000000094d8                __wrap_snprintf
                0x0000000000009500                __wrap_vprintf
                0x0000000000009520                __wrap_vsnprintf
                0x000000000000953c                fctprintf
                0x000000000000956c                isspace
                0x0000000000009580                isalnum
                0x00000000000095a6                isdigit
                0x00000000000095b4                isupper
                0x00000000000095c2                strcasecmp
                0x0000000000009600                stricmp
                0x0000000000009608                strncasecmp
                0x000000000000964c                strnicmp
                0x0000000000009654                strtoul
                0x000000000000970c                atoi
                0x0000000000009718                strlen
                0x0000000000009730                strcat
                0x0000000000009752                strncat
                0x0000000000009782                strcpy
                0x000000000000979a                strncpy
                0x00000000000097c4                strcmp
                0x00000000000097da                strncmp
                0x0000000000009800                strstr
                0x0000000000009838                strchr
                0x000000000000984a                memcpy
                0x000000000000986e                memset
                0x000000000000988e                memcmp
                0x00000000000098ce                memmove
                0x000000000000990e                fls
                0x0000000000009922                ffs
                0x0000000000009938                __wrap_malloc
                0x0000000000009940                __wrap_free
                0x0000000000009948                strtok_r
                0x0000000000009948                __strtok_r
                0x000000000000999c                strtok
                0x00000000000099ac                writesl
                0x00000000000099e8                readsl
                0x0000000000009a80                FreeRTOS_CLIRegisterCommand
                0x0000000000009ae0                FreeRTOS_CLIProcessCommand
                0x0000000000009bac                FreeRTOS_CLIGetOutputBuffer
                0x0000000000009bb4                FreeRTOS_CLIGetParameter
                0x0000000000009e04                vRegisterSampleCLICommands
                0x000000000000a22c                vUARTCommandConsoleStart
                0x000000000000a278                getopt
                0x000000000000a3e4                log_level_string
                0x000000000000a3f0                log_set_lock
                0x000000000000a3fc                log_set_level
                0x000000000000a408                log_set_quiet
                0x000000000000a414                log_init
                0x000000000000a42c                log_log
                0x000000000000a8bc                cm_backtrace_init
                0x000000000000a93c                cm_backtrace_firmware_info
                0x000000000000a964                cm_backtrace_call_stack
                0x000000000000ab08                cm_backtrace_assert
                0x000000000000abbc                cm_backtrace_fault
                0x000000000000add8                HardFault_Handler
                0x000000000000ae0c                xEventGroupCreate
                0x000000000000ae26                xEventGroupWaitBits
                0x000000000000af4c                xEventGroupClearBits
                0x000000000000af9e                vEventGroupClearBitsCallback
                0x000000000000afa6                xEventGroupClearBitsFromISR
                0x000000000000afbc                xEventGroupGetBitsFromISR
                0x000000000000afd8                xEventGroupSetBits
                0x000000000000b070                xEventGroupSync
                0x000000000000b15c                vEventGroupSetBitsCallback
                0x000000000000b164                vEventGroupDelete
                0x000000000000b1a8                xEventGroupSetBitsFromISR
                0x000000000000b1bc                uxEventGroupGetNumber
                0x000000000000b1c6                vEventGroupSetNumber
                0x000000000000b1cc                vListInitialise
                0x000000000000b1e2                vListInitialiseItem
                0x000000000000b1e8                vListInsertEnd
                0x000000000000b1fe                vListInsert
                0x000000000000b230                uxListRemove
                0x000000000000b444                xQueueGenericReset
                0x000000000000b4f6                xQueueGenericCreate
                0x000000000000b53e                xQueueGetMutexHolder
                0x000000000000b558                xQueueGetMutexHolderFromISR
                0x000000000000b580                xQueueCreateCountingSemaphore
                0x000000000000b5cc                xQueueGenericSend
                0x000000000000b7a8                xQueueCreateMutex
                0x000000000000b7be                xQueueGiveMutexRecursive
                0x000000000000b804                xQueueGenericSendFromISR
                0x000000000000b912                xQueueGiveFromISR
                0x000000000000b9f4                xQueueReceive
                0x000000000000bb60                xQueueSemaphoreTake
                0x000000000000bd1c                xQueueTakeMutexRecursive
                0x000000000000bd66                xQueuePeek
                0x000000000000bed4                xQueueReceiveFromISR
                0x000000000000bf8c                xQueuePeekFromISR
                0x000000000000c01c                uxQueueMessagesWaiting
                0x000000000000c048                uxQueueSpacesAvailable
                0x000000000000c078                uxQueueMessagesWaitingFromISR
                0x000000000000c098                vQueueDelete
                0x000000000000c0ba                uxQueueGetQueueNumber
                0x000000000000c0be                vQueueSetQueueNumber
                0x000000000000c0c2                ucQueueGetQueueType
                0x000000000000c0c8                xQueueIsQueueEmptyFromISR
                0x000000000000c0f0                xQueueIsQueueFullFromISR
                0x000000000000c11c                vQueueWaitForMessageRestricted
                0x000000000000c16e                xQueueCreateSet
                0x000000000000c17a                xQueueAddToSet
                0x000000000000c1a0                xQueueRemoveFromSet
                0x000000000000c1c6                xQueueSelectFromSet
                0x000000000000c1de                xQueueSelectFromSetFromISR
                0x000000000000c41a                xStreamBufferGenericCreate
                0x000000000000c4a0                vStreamBufferDelete
                0x000000000000c4d4                xStreamBufferReset
                0x000000000000c528                xStreamBufferSetTriggerLevel
                0x000000000000c55a                xStreamBufferSpacesAvailable
                0x000000000000c58c                xStreamBufferBytesAvailable
                0x000000000000c5ae                xStreamBufferSend
                0x000000000000c6d4                xStreamBufferSendFromISR
                0x000000000000c780                xStreamBufferReceive
                0x000000000000c876                xStreamBufferNextMessageLengthBytes
                0x000000000000c8de                xStreamBufferReceiveFromISR
                0x000000000000c986                xStreamBufferIsEmpty
                0x000000000000c9b2                xStreamBufferIsFull
                0x000000000000c9f0                xStreamBufferSendCompletedFromISR
                0x000000000000ca48                xStreamBufferReceiveCompletedFromISR
                0x000000000000caa0                uxStreamBufferGetStreamBufferNumber
                0x000000000000caa4                vStreamBufferSetStreamBufferNumber
                0x000000000000caa8                ucStreamBufferGetStreamBufferType
                0x000000000000ce4e                xTaskCreate
                0x000000000000ceb2                vTaskDelete
                0x000000000000cf68                eTaskGetState
                0x000000000000cff8                uxTaskPriorityGet
                0x000000000000d018                uxTaskPriorityGetFromISR
                0x000000000000d048                vTaskPrioritySet
                0x000000000000d120                vTaskResume
                0x000000000000d1a8                xTaskResumeFromISR
                0x000000000000d24c                vTaskStartScheduler
                0x000000000000d2d8                vTaskEndScheduler
                0x000000000000d2fc                vTaskSuspendAll
                0x000000000000d310                xTaskGetTickCount
                0x000000000000d31c                xTaskGetTickCountFromISR
                0x000000000000d330                uxTaskGetNumberOfTasks
                0x000000000000d33c                pcTaskGetName
                0x000000000000d36c                xTaskGetIdleTaskHandle
                0x000000000000d394                vTaskStepTick
                0x000000000000d3d4                xTaskIncrementTick
                0x000000000000d508                xTaskResumeAll
                0x000000000000d5fc                vTaskDelayUntil
                0x000000000000d6b4                vTaskDelay
                0x000000000000d778                xTaskGetHandle
                0x000000000000d814                xTaskCatchUpTicks
                0x000000000000d854                xTaskAbortDelay
                0x000000000000d8e8                vTaskSwitchContext
                0x000000000000d98c                vTaskSuspend
                0x000000000000da50                vTaskPlaceOnEventList
                0x000000000000da88                vTaskPlaceOnUnorderedEventList
                0x000000000000dae8                vTaskPlaceOnEventListRestricted
                0x000000000000db28                xTaskRemoveFromEventList
                0x000000000000dbb4                vTaskRemoveFromUnorderedEventList
                0x000000000000dc40                vTaskSetTimeOutState
                0x000000000000dc7c                vTaskInternalSetTimeOutState
                0x000000000000dc90                xTaskCheckForTimeOut
                0x000000000000dd34                vTaskMissedYield
                0x000000000000dd44                uxTaskGetTaskNumber
                0x000000000000dd4e                vTaskSetTaskNumber
                0x000000000000dd54                eTaskConfirmSleepModeStatus
                0x000000000000dd88                vTaskGetInfo
                0x000000000000de5e                uxTaskGetSystemState
                0x000000000000df0c                uxTaskGetStackHighWaterMark2
                0x000000000000df24                uxTaskGetStackHighWaterMark
                0x000000000000df3c                xTaskGetCurrentTaskHandle
                0x000000000000df48                xTaskGetSchedulerState
                0x000000000000df68                xTaskPriorityInherit
                0x000000000000dff8                xTaskPriorityDisinherit
                0x000000000000e090                vTaskPriorityDisinheritAfterTimeout
                0x000000000000e13c                vTaskList
                0x000000000000e1fc                uxTaskResetEventItemValue
                0x000000000000e214                pvTaskIncrementMutexHeldCount
                0x000000000000e230                ulTaskNotifyTake
                0x000000000000e2a8                xTaskNotifyWait
                0x000000000000e340                xTaskGenericNotify
                0x000000000000e454                xTaskGenericNotifyFromISR
                0x000000000000e598                vTaskNotifyGiveFromISR
                0x000000000000e66c                xTaskNotifyStateClear
                0x000000000000e6a0                ulTaskNotifyValueClear
                0x000000000000e6cc                vTaskStackAddr
                0x000000000000e6d8                vTaskStackSize
                0x000000000000e6e4                vTaskName
                0x000000000000e7e6                xTimerCreateTimerTask
                0x000000000000e83c                xTimerCreate
                0x000000000000e874                xTimerGenericCommand
                0x000000000000ebba                xTimerGetTimerDaemonTaskHandle
                0x000000000000ebe0                xTimerGetPeriod
                0x000000000000ec00                vTimerSetReloadMode
                0x000000000000ec46                uxTimerGetReloadMode
                0x000000000000ec80                xTimerGetExpiryTime
                0x000000000000eca0                pcTimerGetName
                0x000000000000ecc0                xTimerIsTimerActive
                0x000000000000ecfa                pvTimerGetTimerID
                0x000000000000ed26                vTimerSetTimerID
                0x000000000000ed52                xTimerPendFunctionCallFromISR
                0x000000000000ed7c                xTimerPendFunctionCall
                0x000000000000edc4                uxTimerGetTimerNumber
                0x000000000000edc8                vTimerSetTimerNumber
                0x000000000000ee4c                pxPortInitialiseStack
                0x000000000000ee78                vPortSVCHandler
                0x000000000000eea4                vPortEndScheduler
                0x000000000000eed0                vPortEnterCritical
                0x000000000000ef1c                vPortExitCritical
                0x000000000000ef50                xPortPendSVHandler
                0x000000000000efb4                xPortSysTickHandler
                0x000000000000efe0                vPortSuppressTicksAndSleep
                0x000000000000f0f0                vPortSetupTimerInterrupt
                0x000000000000f14c                xPortStartScheduler
                0x000000000000f268                vPortValidateInterruptPriority
                0x000000000000f378                pvPortMalloc
                0x000000000000f468                vPortFree
                0x000000000000f4e8                xPortGetFreeHeapSize
                0x000000000000f4f4                xPortGetMinimumEverFreeHeapSize
                0x000000000000f500                vPortInitialiseBlocks
                0x000000000000f502                vPortGetHeapStats
                0x000000000000f608                pvPortMallocNc
                0x000000000000f6f8                vPortFreeNc
                0x000000000000f778                xPortGetFreeHeapSizeNc
                0x000000000000f784                xPortGetMinimumEverFreeHeapSizeNc
                0x000000000000f790                vPortInitialiseBlocksNc
                0x000000000000f792                vPortGetHeapNcStats
                0x000000000000f7f8                OS_Tick_Setup
                0x000000000000f840                OS_Tick_Enable
                0x000000000000f86c                OS_Tick_Disable
                0x000000000000f89c                OS_Tick_AcknowledgeIRQ
                0x000000000000f8a8                OS_Tick_GetIRQn
                0x000000000000f8ae                OS_Tick_GetClock
                0x000000000000f8b8                OS_Tick_GetInterval
                0x000000000000f8c4                OS_Tick_GetCount
                0x000000000000f8d4                OS_Tick_GetOverflow
                0x000000000000f924                SysTick_Handler
                0x000000000000f940                osKernelInitialize
                0x000000000000f97c                osKernelGetInfo
                0x000000000000f9a8                osKernelGetState
                0x000000000000f9cc                osKernelStart
                0x000000000000fa20                osKernelLock
                0x000000000000fa68                osKernelUnlock
                0x000000000000fac0                osKernelRestoreLock
                0x000000000000fb2c                osKernelGetTickCount
                0x000000000000fb58                osKernelGetTickFreq
                0x000000000000fb5e                osKernelGetSysTimerCount
                0x000000000000fba2                osKernelGetSysTimerFreq
                0x000000000000fbac                osThreadNew
                0x000000000000fc6c                osThreadGetName
                0x000000000000fc9c                osThreadGetId
                0x000000000000fca4                osThreadGetState
                0x000000000000fd00                osThreadGetStackSpace
                0x000000000000fd34                osThreadSetPriority
                0x000000000000fd84                osThreadGetPriority
                0x000000000000fdc0                osThreadYield
                0x000000000000fe04                osThreadSuspend
                0x000000000000fe40                osThreadResume
                0x000000000000fe7c                osThreadExit
                0x000000000000fe86                osThreadTerminate
                0x000000000000fed8                osThreadGetCount
                0x000000000000ff04                osThreadEnumerate
                0x000000000000ff84                osThreadFlagsSet
                0x0000000000010014                osThreadFlagsClear
                0x0000000000010088                osThreadFlagsGet
                0x00000000000100d4                osThreadFlagsWait
                0x00000000000101a0                osDelay
                0x00000000000101dc                osDelayUntil
                0x000000000001022c                osTimerNew
                0x00000000000102e0                osTimerGetName
                0x0000000000010310                osTimerStart
                0x0000000000010364                osTimerStop
                0x00000000000103c8                osTimerIsRunning
                0x00000000000103f8                osTimerDelete
                0x000000000001045c                osEventFlagsNew
                0x00000000000104b8                osEventFlagsSet
                0x0000000000010534                osEventFlagsClear
                0x0000000000010594                osEventFlagsGet
                0x00000000000105d0                osEventFlagsWait
                0x0000000000010664                osEventFlagsDelete
                0x00000000000106a0                osMutexNew
                0x0000000000010728                osMutexAcquire
                0x00000000000107a4                osMutexRelease
                0x0000000000010810                osMutexGetOwner
                0x0000000000010848                osMutexDelete
                0x0000000000010888                osSemaphoreNew
                0x0000000000010920                osSemaphoreAcquire
                0x00000000000109a8                osSemaphoreRelease
                0x0000000000010a24                osSemaphoreGetCount
                0x0000000000010a5c                osSemaphoreDelete
                0x0000000000010a98                osMessageQueueNew
                0x0000000000010b24                osMessageQueuePut
                0x0000000000010bc0                osMessageQueueGet
                0x0000000000010c5c                osMessageQueueGetCapacity
                0x0000000000010c66                osMessageQueueGetMsgSize
                0x0000000000010c70                osMessageQueueGetCount
                0x0000000000010ca8                osMessageQueueGetSpace
                0x0000000000010cf8                osMessageQueueReset
                0x0000000000010d38                osMessageQueueDelete
                0x0000000000010d74                osMemoryPoolNew
                0x0000000000010ec0                osMemoryPoolGetName
                0x0000000000010eec                osMemoryPoolAlloc
                0x0000000000010fb4                osMemoryPoolFree
                0x00000000000110ac                osMemoryPoolGetCapacity
                0x00000000000110c8                osMemoryPoolGetBlockSize
                0x00000000000110e4                osMemoryPoolGetCount
                0x0000000000011130                osMemoryPoolGetSpace
                0x0000000000011178                osMemoryPoolDelete
                0x0000000000011200                vApplicationStackOverflowHook
                0x0000000000011220                vApplicationTickHook
                0x0000000000011230                vApplicationDaemonTaskStartupHook
                0x000000000001125c                main
                0x0000000000011348                register_clk_commands
                0x00000000000114a8                print_buf
                0x00000000000115a8                register_mem_commands
                0x00000000000115c8                gpio_cb
                0x0000000000011864                demo_gpio_init
                0x0000000000011ef0                demo_i2c_init
                0x00000000000120f8                demo_espi_init
                0x0000000000012468                demo_peci_init
                0x0000000000012488                tach_cb
                0x00000000000124a4                show_pwm_info
                0x0000000000012660                show_tach_info
                0x0000000000012810                demo_pwm_tach_init
                0x0000000000012bd0                demo_adc_init
                0x0000000000012e04                demo_jtag_init
                0x0000000000012f00                demo_kcs_init
                0x000000000001301c                demo_bt_init
                0x0000000000013130                demo_snoop_init
                0x00000000000131ec                demo_pcc_init
                0x0000000000013568                demo_usb_init
                0x0000000000013964                demo_fmc_spi_flash_init
                0x0000000000013974                aspeed_read_from_flash
                0x00000000000139ac                aspeed_erase_flash_sectors
                0x0000000000013a2c                aspeed_write_to_flash
                0x0000000000013aa0                aspeed_erase_write_verify
                0x0000000000013bbc                aspeed_update_flash
                0x0000000000014180                print_i3c_msg
                0x00000000000141c0                i3c_cmd_register_obj
                0x00000000000141f0                i3c_test_task
                0x00000000000143bc                i3c_cmd_test_begin_hook
                0x00000000000143ec                i3c_cmd_test_finish_hook
                0x00000000000143fc                demo_i3c_init
                0x0000000000014ada                buf_cpy
                0x0000000000014b0e                buf_cmp
                0x0000000000014b46                buf_cmp_mask
                0x0000000000014c8c                buf_set_ones
                0x0000000000014cb2                buf_set_buf
                0x0000000000015a38                demo_svf_init
 *(.init)
 *(.fini)
 *crtbegin.o(.ctors)
 *crtbegin?.o(.ctors)
 *(EXCLUDE_FILE(*crtend.o *crtend?.o) .ctors)
 *(SORT_BY_NAME(.ctors.*))
 *(.ctors)
 *crtbegin.o(.dtors)
 *crtbegin?.o(.dtors)
 *(EXCLUDE_FILE(*crtend.o *crtend?.o) .dtors)
 *(SORT_BY_NAME(.dtors.*))
 *(.dtors)
 *(.rodata*)
 .rodata        0x0000000000015a58      0xe00 built-in.o
                0x0000000000015f08                usb_mutex_attr
                0x0000000000016188                flash_ids
                0x000000000001677c                i3c_cmd
 .rodata.str1.4
                0x0000000000016858     0x4709 built-in.o
                                       0x49d1 (size before relaxing)
 *(.eh_frame*)
                0x000000000001af61                _end_text = .
                0x000000000001af61                _etext = .

.glue_7         0x000000000001af64        0x0
 .glue_7        0x000000000001af64        0x0 linker stubs

.glue_7t        0x000000000001af64        0x0
 .glue_7t       0x000000000001af64        0x0 linker stubs

.vfp11_veneer   0x000000000001af64        0x0
 .vfp11_veneer  0x000000000001af64        0x0 linker stubs

.v4_bx          0x000000000001af64        0x0
 .v4_bx         0x000000000001af64        0x0 linker stubs

.iplt           0x000000000001af64        0x0
 .iplt          0x000000000001af64        0x0 built-in.o

.rel.dyn        0x000000000001af64        0x0
 .rel.iplt      0x000000000001af64        0x0 built-in.o

.ARM.extab
 *(.ARM.extab* .gnu.linkonce.armextab.*)
                0x000000000001af61                __exidx_start = .

.ARM.exidx
 *(.ARM.exidx* .gnu.linkonce.armexidx.*)
                0x000000000001af61                __exidx_end = .
                0x000000000001af64                __etext = ALIGN (0x4)

.data           0x000000000001af64     0x336c
                0x000000000001af64                __data_start__ = .
 *(vtable)
 *(.data*)
 .data          0x000000000001af64     0x26f4 built-in.o
                0x000000000001af64                SystemCoreClock
                0x000000000001af68                delay_timer
                0x000000000001af70                gpio_offset_data
                0x000000000001af80                gpio_offset_int_status
                0x000000000001af90                sgpiom_offset_gather
                0x000000000001b010                string_descriptor2
                0x000000000001b030                string_descriptor1
                0x000000000001b040                string_descriptor0
                0x000000000001b044                stdio_uart
                0x000000000001b054                gpio
                0x000000000001b09c                fmc_spi
                0x000000000001b0a8                usb
                0x000000000001c52c                spi2_dev
                0x000000000001c544                spi1_dev
                0x000000000001c55c                fmc_dev
                0x000000000001c574                spi2_priv
                0x000000000001c5f0                spi1_priv
                0x000000000001c66c                fmc_priv
                0x000000000001c6e8                usb_dev
                0x000000000001c700                usb_dev_reset
                0x000000000001c70c                usb_dev_clk
                0x000000000001c718                pcc_dev
                0x000000000001c730                pcc_dev_reset
                0x000000000001c73c                pcc_dev_clk
                0x000000000001c748                pcc_priv
                0x000000000001c75c                bt_dev
                0x000000000001c774                bt_dev_reset
                0x000000000001c780                bt_dev_clk
                0x000000000001c78c                bt_priv
                0x000000000001c794                snoop_dev
                0x000000000001c7ac                snoop_dev_reset
                0x000000000001c7b8                snoop_dev_clk
                0x000000000001c7c4                snoop_priv
                0x000000000001c7cc                kcs4_dev
                0x000000000001c7e4                kcs4_dev_reset
                0x000000000001c7f0                kcs4_dev_clk
                0x000000000001c7fc                kcs3_dev
                0x000000000001c814                kcs3_dev_reset
                0x000000000001c820                kcs3_dev_clk
                0x000000000001c82c                kcs2_dev
                0x000000000001c844                kcs2_dev_reset
                0x000000000001c850                kcs2_dev_clk
                0x000000000001c85c                kcs1_dev
                0x000000000001c874                kcs1_dev_reset
                0x000000000001c880                kcs1_dev_clk
                0x000000000001c88c                kcs4_priv
                0x000000000001c894                kcs3_priv
                0x000000000001c89c                kcs2_priv
                0x000000000001c8a4                kcs1_priv
                0x000000000001c8ac                jtag1
                0x000000000001c8c4                jtag1_reset
                0x000000000001c8d0                jtag1_priv
                0x000000000001c8e0                jtag0
                0x000000000001c8f8                jtag0_reset
                0x000000000001c904                jtag0_priv
                0x000000000001c914                adc1
                0x000000000001c92c                adc1_priv
                0x000000000001c944                adc0
                0x000000000001c95c                adc0_priv
                0x000000000001c974                g_adc
                0x000000000001c98c                g_adc_reset
                0x000000000001c998                tach15
                0x000000000001c9b0                tach15_priv
                0x000000000001c9d8                tach14
                0x000000000001c9f0                tach14_priv
                0x000000000001ca18                tach13
                0x000000000001ca30                tach13_priv
                0x000000000001ca58                tach12
                0x000000000001ca70                tach12_priv
                0x000000000001ca98                tach11
                0x000000000001cab0                tach11_priv
                0x000000000001cad8                tach10
                0x000000000001caf0                tach10_priv
                0x000000000001cb18                tach9
                0x000000000001cb30                tach9_priv
                0x000000000001cb58                tach8
                0x000000000001cb70                tach8_priv
                0x000000000001cb98                tach7
                0x000000000001cbb0                tach7_priv
                0x000000000001cbd8                tach6
                0x000000000001cbf0                tach6_priv
                0x000000000001cc18                tach5
                0x000000000001cc30                tach5_priv
                0x000000000001cc58                tach4
                0x000000000001cc70                tach4_priv
                0x000000000001cc98                tach3
                0x000000000001ccb0                tach3_priv
                0x000000000001ccd8                tach2
                0x000000000001ccf0                tach2_priv
                0x000000000001cd18                tach1
                0x000000000001cd30                tach1_priv
                0x000000000001cd58                tach0
                0x000000000001cd70                tach0_priv
                0x000000000001cd98                pwm15
                0x000000000001cdb0                pwm15_priv
                0x000000000001cdc0                pwm14
                0x000000000001cdd8                pwm14_priv
                0x000000000001cde8                pwm13
                0x000000000001ce00                pwm13_priv
                0x000000000001ce10                pwm12
                0x000000000001ce28                pwm12_priv
                0x000000000001ce38                pwm11
                0x000000000001ce50                pwm11_priv
                0x000000000001ce60                pwm10
                0x000000000001ce78                pwm10_priv
                0x000000000001ce88                pwm9
                0x000000000001cea0                pwm9_priv
                0x000000000001ceb0                pwm8
                0x000000000001cec8                pwm8_priv
                0x000000000001ced8                pwm7
                0x000000000001cef0                pwm7_priv
                0x000000000001cf00                pwm6
                0x000000000001cf18                pwm6_priv
                0x000000000001cf28                pwm5
                0x000000000001cf40                pwm5_priv
                0x000000000001cf50                pwm4
                0x000000000001cf68                pwm4_priv
                0x000000000001cf78                pwm3
                0x000000000001cf90                pwm3_priv
                0x000000000001cfa0                pwm2
                0x000000000001cfb8                pwm2_priv
                0x000000000001cfc8                pwm1
                0x000000000001cfe0                pwm1_priv
                0x000000000001cff0                pwm0
                0x000000000001d008                pwm0_priv
                0x000000000001d018                g_pwm_tach
                0x000000000001d030                g_pwm_tach_reset
                0x000000000001d03c                peci
                0x000000000001d054                peci_reset
                0x000000000001d060                peci_priv
                0x000000000001d090                espi_dev
                0x000000000001d0a8                espi_dev_reset
                0x000000000001d0b4                espi_dev_clk
                0x000000000001d0c0                espi_priv
                0x000000000001d0dc                i3c3
                0x000000000001d0f4                i3c3_reset
                0x000000000001d100                i3c3_clk
                0x000000000001d10c                i3c3_priv
                0x000000000001d118                i3c2
                0x000000000001d130                i3c2_reset
                0x000000000001d13c                i3c2_clk
                0x000000000001d148                i3c2_priv
                0x000000000001d154                i3c1
                0x000000000001d16c                i3c1_reset
                0x000000000001d178                i3c1_clk
                0x000000000001d184                i3c1_priv
                0x000000000001d190                i3c0
                0x000000000001d1a8                i3c0_reset
                0x000000000001d1b4                i3c0_clk
                0x000000000001d1c0                i3c0_priv
                0x000000000001d1cc                i3c_global
                0x000000000001d1e4                i3c_global_reset
                0x000000000001d1f0                i2c15
                0x000000000001d208                i2c15_priv
                0x000000000001d218                i2c14
                0x000000000001d230                i2c14_priv
                0x000000000001d240                i2c13
                0x000000000001d258                i2c13_priv
                0x000000000001d268                i2c12
                0x000000000001d280                i2c12_priv
                0x000000000001d290                i2c11
                0x000000000001d2a8                i2c11_priv
                0x000000000001d2b8                i2c10
                0x000000000001d2d0                i2c10_priv
                0x000000000001d2e0                i2c9
                0x000000000001d2f8                i2c9_priv
                0x000000000001d308                i2c8
                0x000000000001d320                i2c8_priv
                0x000000000001d330                i2c7
                0x000000000001d348                i2c7_priv
                0x000000000001d358                i2c6
                0x000000000001d370                i2c6_priv
                0x000000000001d380                i2c5
                0x000000000001d398                i2c5_priv
                0x000000000001d3a8                i2c4
                0x000000000001d3c0                i2c4_priv
                0x000000000001d3d0                i2c3
                0x000000000001d3e8                i2c3_priv
                0x000000000001d3f8                i2c2
                0x000000000001d410                i2c2_priv
                0x000000000001d420                i2c1
                0x000000000001d438                i2c1_priv
                0x000000000001d448                i2c0
                0x000000000001d460                i2c0_priv
                0x000000000001d470                i2c_global
                0x000000000001d488                i2c_global_reset
                0x000000000001d494                timer0
                0x000000000001d4ac                sgpiom0
                0x000000000001d4c4                sgpiom0_priv
                0x000000000001d4d4                gpio0
                0x000000000001d4ec                gpio0_priv
                0x000000000001d4fc                uart6
                0x000000000001d514                uart6_clk
                0x000000000001d520                uart4
                0x000000000001d544                optind
                0x000000000001d54c                opterr
                0x000000000001d554                o_i3c_m
                0x000000000001d5b0                o_i3c_s
                0x000000000001d60c                i3c_g
                0x000000000001d610                slaves
                0x000000000001d658                . = ALIGN (0x4)
                [!provide]                        PROVIDE (__preinit_array_start = .)
 *(.preinit_array)
                [!provide]                        PROVIDE (__preinit_array_end = .)
                0x000000000001d658                . = ALIGN (0x4)
                [!provide]                        PROVIDE (__init_array_start = .)
 *(SORT_BY_NAME(.init_array.*))
 *(.init_array)
                [!provide]                        PROVIDE (__init_array_end = .)
                0x000000000001d658                . = ALIGN (0x4)
                [!provide]                        PROVIDE (__fini_array_start = .)
 *(SORT_BY_NAME(.fini_array.*))
 *(.fini_array)
                [!provide]                        PROVIDE (__fini_array_end = .)
 *(.jcr*)
                0x000000000001d658                . = ALIGN (0x4)
 *(.pinctrl_fun_tbl)
 .pinctrl_fun_tbl
                0x000000000001d658       0x98 built-in.o
                0x000000000001d658                aspeed_fun_desc_table
 *(.pinctrl_sig_tbl)
 .pinctrl_sig_tbl
                0x000000000001d6f0      0x2c4 built-in.o
                0x000000000001d6f0                aspeed_sig_desc_table
 *(.pinctrl_fun_desc)
 .pinctrl_fun_desc
                0x000000000001d9b4       0xec built-in.o
                0x000000000001d9b4                fun_desc_SPI2Q
                0x000000000001d9bc                fun_desc_SPI2
                0x000000000001d9c8                fun_desc_SPI1Q
                0x000000000001d9d0                fun_desc_FWSPIQ
                0x000000000001d9d8                fun_desc_I2C9
                0x000000000001d9e0                fun_desc_I2C8
                0x000000000001d9e8                fun_desc_I2C5
                0x000000000001d9f0                fun_desc_I2C4
                0x000000000001d9f8                fun_desc_I2C3
                0x000000000001da00                fun_desc_I2C2
                0x000000000001da08                fun_desc_I2C1
                0x000000000001da10                fun_desc_I2C0
                0x000000000001da18                fun_desc_HVI3C1
                0x000000000001da20                fun_desc_HVI3C0
                0x000000000001da28                fun_desc_SGPIOM
                0x000000000001da34                fun_desc_JTAGM1
                0x000000000001da40                fun_desc_TACH8
                0x000000000001da44                fun_desc_TACH7
                0x000000000001da48                fun_desc_TACH6
                0x000000000001da4c                fun_desc_TACH5
                0x000000000001da50                fun_desc_TACH4
                0x000000000001da54                fun_desc_TACH3
                0x000000000001da58                fun_desc_TACH2
                0x000000000001da5c                fun_desc_TACH1
                0x000000000001da60                fun_desc_TACH0
                0x000000000001da64                fun_desc_PWM3
                0x000000000001da68                fun_desc_PWM2
                0x000000000001da6c                fun_desc_PWM1
                0x000000000001da70                fun_desc_PWM0
                0x000000000001da74                fun_desc_ADC7
                0x000000000001da78                fun_desc_ADC6
                0x000000000001da7c                fun_desc_ADC5
                0x000000000001da80                fun_desc_ADC4
                0x000000000001da84                fun_desc_ADC3
                0x000000000001da88                fun_desc_ADC2
                0x000000000001da8c                fun_desc_ADC1
                0x000000000001da90                fun_desc_ADC0
                0x000000000001da94                fun_desc_ARM_ICE
 *(.pinctrl_sig_desc)
 .pinctrl_sig_desc
                0x000000000001daa0      0x580 built-in.o
                0x000000000001daa0                sig_desc_SPI2DQ3
                0x000000000001daa8                sig_desc_SPI2DQ2
                0x000000000001dab0                sig_desc_SPI2DQ1
                0x000000000001dab8                sig_desc_SPI2DQ0
                0x000000000001dac0                sig_desc_SPI2CK
                0x000000000001dac8                sig_desc_SPI2CS1
                0x000000000001dad0                sig_desc_SPI2CS0
                0x000000000001dad8                sig_desc_SPI1DQ3
                0x000000000001dae0                sig_desc_SPI1DQ2
                0x000000000001dae8                sig_desc_FWSPIQ3
                0x000000000001daf0                sig_desc_FWSPIQ2
                0x000000000001daf8                sig_desc_SGPMI
                0x000000000001db00                sig_desc_SGPMO
                0x000000000001db08                sig_desc_SGPMLD
                0x000000000001db10                sig_desc_SGPMCLK
                0x000000000001db18                sig_desc_GPIU7
                0x000000000001db20                sig_desc_GPIU6
                0x000000000001db28                sig_desc_GPIU5
                0x000000000001db30                sig_desc_GPIU4
                0x000000000001db38                sig_desc_GPIU3
                0x000000000001db40                sig_desc_GPIU2
                0x000000000001db48                sig_desc_GPIU1
                0x000000000001db50                sig_desc_GPIU0
                0x000000000001db58                sig_desc_GPIT7
                0x000000000001db60                sig_desc_GPIT6
                0x000000000001db68                sig_desc_GPIT5
                0x000000000001db70                sig_desc_GPIT4
                0x000000000001db78                sig_desc_GPIT3
                0x000000000001db80                sig_desc_GPIT2
                0x000000000001db88                sig_desc_GPIT1
                0x000000000001db90                sig_desc_GPIT0
                0x000000000001db98                sig_desc_GPIOS0
                0x000000000001dba0                sig_desc_GPIOR7
                0x000000000001dba8                sig_desc_GPIOR6
                0x000000000001dbb0                sig_desc_GPIOR5
                0x000000000001dbb8                sig_desc_GPIOR4
                0x000000000001dbc0                sig_desc_GPIOR1
                0x000000000001dbc8                sig_desc_GPIOR0
                0x000000000001dbd0                sig_desc_GPIOQ7
                0x000000000001dbd8                sig_desc_GPIOQ6
                0x000000000001dbe0                sig_desc_GPIOQ5
                0x000000000001dbe8                sig_desc_GPIOO3
                0x000000000001dbf0                sig_desc_GPIOO2
                0x000000000001dbf8                sig_desc_GPIOO1
                0x000000000001dc00                sig_desc_GPIOO0
                0x000000000001dc08                sig_desc_GPION7
                0x000000000001dc10                sig_desc_GPION6
                0x000000000001dc18                sig_desc_GPION5
                0x000000000001dc20                sig_desc_GPION4
                0x000000000001dc28                sig_desc_GPIOM7
                0x000000000001dc30                sig_desc_GPIOM6
                0x000000000001dc38                sig_desc_GPIOM5
                0x000000000001dc40                sig_desc_GPIOM4
                0x000000000001dc48                sig_desc_GPIOM3
                0x000000000001dc50                sig_desc_GPIOM2
                0x000000000001dc58                sig_desc_GPIOM1
                0x000000000001dc60                sig_desc_GPIOM0
                0x000000000001dc68                sig_desc_GPIOL1
                0x000000000001dc70                sig_desc_GPIOL0
                0x000000000001dc78                sig_desc_SALT10
                0x000000000001dc80                sig_desc_SALT9
                0x000000000001dc88                sig_desc_SALT8
                0x000000000001dc90                sig_desc_SALT7
                0x000000000001dc98                sig_desc_SALT6
                0x000000000001dca0                sig_desc_SALT5
                0x000000000001dca8                sig_desc_SALT4
                0x000000000001dcb0                sig_desc_SALT3
                0x000000000001dcb8                sig_desc_SALT2
                0x000000000001dcc0                sig_desc_SALT1
                0x000000000001dcc8                sig_desc_SDA14
                0x000000000001dcd0                sig_desc_SCL14
                0x000000000001dcd8                sig_desc_SDA13
                0x000000000001dce0                sig_desc_SCL13
                0x000000000001dce8                sig_desc_SDA12
                0x000000000001dcf0                sig_desc_SCL12
                0x000000000001dcf8                sig_desc_SDA11
                0x000000000001dd00                sig_desc_SCL11
                0x000000000001dd08                sig_desc_SDA10
                0x000000000001dd10                sig_desc_SCL10
                0x000000000001dd18                sig_desc_SDA9
                0x000000000001dd20                sig_desc_SCL9
                0x000000000001dd28                sig_desc_SDA8
                0x000000000001dd30                sig_desc_SCL8
                0x000000000001dd38                sig_desc_SDA7
                0x000000000001dd40                sig_desc_SCL7
                0x000000000001dd48                sig_desc_SDA6
                0x000000000001dd50                sig_desc_SCL6
                0x000000000001dd58                sig_desc_SDA5
                0x000000000001dd60                sig_desc_SCL5
                0x000000000001dd68                sig_desc_SDA4
                0x000000000001dd70                sig_desc_SCL4
                0x000000000001dd78                sig_desc_SDA3
                0x000000000001dd80                sig_desc_SCL3
                0x000000000001dd88                sig_desc_SDA2
                0x000000000001dd90                sig_desc_SCL2
                0x000000000001dd98                sig_desc_SDA1
                0x000000000001dda0                sig_desc_SCL1
                0x000000000001dda8                sig_desc_HVI3C4SDA
                0x000000000001ddb0                sig_desc_HVI3C4SCL
                0x000000000001ddb8                sig_desc_HVI3C3SDA
                0x000000000001ddc0                sig_desc_HVI3C3SCL
                0x000000000001ddc8                sig_desc_HVI3C2SDA
                0x000000000001ddd0                sig_desc_HVI3C2SCL
                0x000000000001ddd8                sig_desc_HVI3C1SDA
                0x000000000001dde0                sig_desc_HVI3C1SCL
                0x000000000001dde8                sig_desc_I3C4SDA
                0x000000000001ddf0                sig_desc_I3C4SCL
                0x000000000001ddf8                sig_desc_I3C3SDA
                0x000000000001de00                sig_desc_I3C3SCL
                0x000000000001de08                sig_desc_I3C2SDA
                0x000000000001de10                sig_desc_I3C2SCL
                0x000000000001de18                sig_desc_I3C1SDA
                0x000000000001de20                sig_desc_I3C1SCL
                0x000000000001de28                sig_desc_MTDO2
                0x000000000001de30                sig_desc_MTMS2
                0x000000000001de38                sig_desc_MTCK2
                0x000000000001de40                sig_desc_MTDI2
                0x000000000001de48                sig_desc_MTRSTN2
                0x000000000001de50                sig_desc_MTDO1
                0x000000000001de58                sig_desc_MTMS1
                0x000000000001de60                sig_desc_MTCK1
                0x000000000001de68                sig_desc_MTDI1
                0x000000000001de70                sig_desc_MTRSTN1
                0x000000000001de78                sig_desc_TACH15
                0x000000000001de80                sig_desc_TACH14
                0x000000000001de88                sig_desc_TACH13
                0x000000000001de90                sig_desc_TACH12
                0x000000000001de98                sig_desc_TACH11
                0x000000000001dea0                sig_desc_TACH10
                0x000000000001dea8                sig_desc_TACH9
                0x000000000001deb0                sig_desc_TACH8
                0x000000000001deb8                sig_desc_TACH7
                0x000000000001dec0                sig_desc_TACH6
                0x000000000001dec8                sig_desc_TACH5
                0x000000000001ded0                sig_desc_TACH4
                0x000000000001ded8                sig_desc_TACH3
                0x000000000001dee0                sig_desc_TACH2
                0x000000000001dee8                sig_desc_TACH1
                0x000000000001def0                sig_desc_TACH0
                0x000000000001def8                sig_desc_PWM15
                0x000000000001df00                sig_desc_PWM14
                0x000000000001df08                sig_desc_PWM13
                0x000000000001df10                sig_desc_PWM12
                0x000000000001df18                sig_desc_PWM11
                0x000000000001df20                sig_desc_PWM10
                0x000000000001df28                sig_desc_PWM9
                0x000000000001df30                sig_desc_PWM8
                0x000000000001df38                sig_desc_PWM7
                0x000000000001df40                sig_desc_PWM6
                0x000000000001df48                sig_desc_PWM5
                0x000000000001df50                sig_desc_PWM4
                0x000000000001df58                sig_desc_PWM3
                0x000000000001df60                sig_desc_PWM2
                0x000000000001df68                sig_desc_PWM1
                0x000000000001df70                sig_desc_PWM0
                0x000000000001df78                sig_desc_ADC15
                0x000000000001df80                sig_desc_ADC14
                0x000000000001df88                sig_desc_ADC13
                0x000000000001df90                sig_desc_ADC12
                0x000000000001df98                sig_desc_ADC11
                0x000000000001dfa0                sig_desc_ADC10
                0x000000000001dfa8                sig_desc_ADC9
                0x000000000001dfb0                sig_desc_ADC8
                0x000000000001dfb8                sig_desc_ADC7
                0x000000000001dfc0                sig_desc_ADC6
                0x000000000001dfc8                sig_desc_ADC5
                0x000000000001dfd0                sig_desc_ADC4
                0x000000000001dfd8                sig_desc_ADC3
                0x000000000001dfe0                sig_desc_ADC2
                0x000000000001dfe8                sig_desc_ADC1
                0x000000000001dff0                sig_desc_ADC0
                0x000000000001dff8                sig_desc_ARM_TMS
                0x000000000001e000                sig_desc_ARM_TDO
                0x000000000001e008                sig_desc_ARM_TDI
                0x000000000001e010                sig_desc_ARM_TCK
                0x000000000001e018                sig_desc_ARM_TRST
 *(.pinctrl_pin_desc)
 .pinctrl_pin_desc
                0x000000000001e020      0x2b0 built-in.o
                0x000000000001e020                aspeed_pin_desc_table
                0x000000000001e2d0                . = ALIGN (0x4)
                0x000000000001e2d0                __data_end__ = .
                0x000000000001e2d0                __etext_nc = ALIGN (0x4)

.igot.plt       0x000000000001e2d0        0x0
 .igot.plt      0x000000000001e2d0        0x0 built-in.o

.data_nc        0x0000000000070000        0x0 load address 0x000000000001e2d0
                0x0000000000070000                . = ALIGN (0x4)
                0x0000000000070000                __data_nc_start__ = .
 *(.nocache.data*)
                0x0000000000070000                . = ALIGN (0x4)
                0x0000000000070000                __data_nc_end__ = .

.bss            0x000000000001e2d0     0x44a8
                0x000000000001e2d0                . = ALIGN (0x4)
                0x000000000001e2d0                __bss_start__ = .
 *(.bss*)
 .bss           0x000000000001e2d0     0x2c0c built-in.o
                0x000000000001e7f0                spi2_dev_reset
                0x000000000001e7fc                spi2_dev_clk
                0x000000000001e808                spi1_dev_reset
                0x000000000001e814                spi1_dev_clk
                0x000000000001e820                fmc_dev_reset
                0x000000000001e82c                fmc_dev_clk
                0x000000000001e838                jtag1_clk
                0x000000000001e844                jtag0_clk
                0x000000000001e850                adc1_reset
                0x000000000001e85c                adc1_clk
                0x000000000001e868                adc0_reset
                0x000000000001e874                adc0_clk
                0x000000000001e880                g_adc_clk
                0x000000000001e88c                tach15_reset
                0x000000000001e898                tach15_clk
                0x000000000001e8a4                tach14_reset
                0x000000000001e8b0                tach14_clk
                0x000000000001e8bc                tach13_reset
                0x000000000001e8c8                tach13_clk
                0x000000000001e8d4                tach12_reset
                0x000000000001e8e0                tach12_clk
                0x000000000001e8ec                tach11_reset
                0x000000000001e8f8                tach11_clk
                0x000000000001e904                tach10_reset
                0x000000000001e910                tach10_clk
                0x000000000001e91c                tach9_reset
                0x000000000001e928                tach9_clk
                0x000000000001e934                tach8_reset
                0x000000000001e940                tach8_clk
                0x000000000001e94c                tach7_reset
                0x000000000001e958                tach7_clk
                0x000000000001e964                tach6_reset
                0x000000000001e970                tach6_clk
                0x000000000001e97c                tach5_reset
                0x000000000001e988                tach5_clk
                0x000000000001e994                tach4_reset
                0x000000000001e9a0                tach4_clk
                0x000000000001e9ac                tach3_reset
                0x000000000001e9b8                tach3_clk
                0x000000000001e9c4                tach2_reset
                0x000000000001e9d0                tach2_clk
                0x000000000001e9dc                tach1_reset
                0x000000000001e9e8                tach1_clk
                0x000000000001e9f4                tach0_reset
                0x000000000001ea00                tach0_clk
                0x000000000001ea0c                pwm15_reset
                0x000000000001ea18                pwm15_clk
                0x000000000001ea24                pwm14_reset
                0x000000000001ea30                pwm14_clk
                0x000000000001ea3c                pwm13_reset
                0x000000000001ea48                pwm13_clk
                0x000000000001ea54                pwm12_reset
                0x000000000001ea60                pwm12_clk
                0x000000000001ea6c                pwm11_reset
                0x000000000001ea78                pwm11_clk
                0x000000000001ea84                pwm10_reset
                0x000000000001ea90                pwm10_clk
                0x000000000001ea9c                pwm9_reset
                0x000000000001eaa8                pwm9_clk
                0x000000000001eab4                pwm8_reset
                0x000000000001eac0                pwm8_clk
                0x000000000001eacc                pwm7_reset
                0x000000000001ead8                pwm7_clk
                0x000000000001eae4                pwm6_reset
                0x000000000001eaf0                pwm6_clk
                0x000000000001eafc                pwm5_reset
                0x000000000001eb08                pwm5_clk
                0x000000000001eb14                pwm4_reset
                0x000000000001eb20                pwm4_clk
                0x000000000001eb2c                pwm3_reset
                0x000000000001eb38                pwm3_clk
                0x000000000001eb44                pwm2_reset
                0x000000000001eb50                pwm2_clk
                0x000000000001eb5c                pwm1_reset
                0x000000000001eb68                pwm1_clk
                0x000000000001eb74                pwm0_reset
                0x000000000001eb80                pwm0_clk
                0x000000000001eb8c                g_pwm_tach_clk
                0x000000000001eb98                peci_clk
                0x000000000001eba4                i3c_global_clk
                0x000000000001ebb0                i2c15_reset
                0x000000000001ebbc                i2c15_clk
                0x000000000001ebc8                i2c14_reset
                0x000000000001ebd4                i2c14_clk
                0x000000000001ebe0                i2c13_reset
                0x000000000001ebec                i2c13_clk
                0x000000000001ebf8                i2c12_reset
                0x000000000001ec04                i2c12_clk
                0x000000000001ec10                i2c11_reset
                0x000000000001ec1c                i2c11_clk
                0x000000000001ec28                i2c10_reset
                0x000000000001ec34                i2c10_clk
                0x000000000001ec40                i2c9_reset
                0x000000000001ec4c                i2c9_clk
                0x000000000001ec58                i2c8_reset
                0x000000000001ec64                i2c8_clk
                0x000000000001ec70                i2c7_reset
                0x000000000001ec7c                i2c7_clk
                0x000000000001ec88                i2c6_reset
                0x000000000001ec94                i2c6_clk
                0x000000000001eca0                i2c5_reset
                0x000000000001ecac                i2c5_clk
                0x000000000001ecb8                i2c4_reset
                0x000000000001ecc4                i2c4_clk
                0x000000000001ecd0                i2c3_reset
                0x000000000001ecdc                i2c3_clk
                0x000000000001ece8                i2c2_reset
                0x000000000001ecf4                i2c2_clk
                0x000000000001ed00                i2c1_reset
                0x000000000001ed0c                i2c1_clk
                0x000000000001ed18                i2c0_reset
                0x000000000001ed24                i2c0_clk
                0x000000000001ed30                i2c_global_clk
                0x000000000001ed3c                timer0_reset
                0x000000000001ed48                timer0_clk
                0x000000000001ed54                sgpiom0_reset
                0x000000000001ed60                sgpiom0_clk
                0x000000000001ed6c                gpio0_reset
                0x000000000001ed78                gpio0_clk
                0x000000000001ed84                uart6_reset
                0x000000000001ed90                uart4_reset
                0x000000000001ed9c                uart4_clk
                0x000000000001f724                pxCurrentTCB
                0x000000000001fd68                i3c_adaptor
 *(COMMON)
 COMMON         0x0000000000020edc     0x189c built-in.o
                0x0000000000020edc                i3c_master_task_attr
                0x0000000000020f00                snoop_tattr
                0x0000000000020f24                kcs_tid
                0x0000000000020f28                jtag
                0x0000000000020f30                i3c_task_id
                0x0000000000020f34                pcc_tattr
                0x0000000000020f58                cInputHistory
                0x000000000002114c                optarg
                0x0000000000021150                kcs_tattr
                0x0000000000021174                i3c_test_id
                0x0000000000021178                i3c_master_task_id
                0x000000000002117c                cInputString
                0x00000000000211b0                tid_task
                0x00000000000211b4                espi_base
                0x00000000000211b8                g_pwm_tach_priv
                0x000000000002123c                snoop_tid
                0x0000000000021240                tach
                0x0000000000021280                adc
                0x0000000000021288                bt_tid
                0x000000000002128c                i2c
                0x000000000002264c                pcc_tid
                0x0000000000022650                i3c_test_attr
                0x0000000000022674                i3c_task_attr
                0x0000000000022698                pwm
                0x00000000000226d8                tattr_task
                0x00000000000226fc                espi_tid
                0x0000000000022700                espi_tattr
                0x0000000000022724                optopt
                0x0000000000022728                argv_list
                0x0000000000022750                o_peci
                0x0000000000022754                bt_tattr
                0x0000000000022778                . = ALIGN (0x4)
                0x0000000000022778                __bss_end__ = .

.bss_nc         0x0000000000070000    0x2b040
                0x0000000000070000                . = ALIGN (0x4)
                0x0000000000070000                __bss_nc_start__ = .
 *(.nocache.bss*)
 .nocache.bss   0x0000000000070000    0x2b040 built-in.o
                0x000000000009b040                . = ALIGN (0x4)
                0x000000000009b040                __bss_nc_end__ = .

.heap_nc        0x000000000009b040     0x8000
                0x000000000009b040                __HeapNcBase = .
 *(.heap.nocache*)
 .heap.nocache  0x000000000009b040     0x8000 built-in.o
                0x000000000009b040                ucHeapNc
                0x00000000000a3040                __HeapNcLimit = .

.heap           0x0000000000022778    0x18000
                0x0000000000022778                __HeapBase = .
                0x0000000000022778                __end__ = .
                0x0000000000022778                end = __end__
 *(.heap*)
 .heap          0x0000000000022778    0x18000 built-in.o
                0x0000000000022778                ucHeap
                0x000000000003a778                __HeapLimit = .

.stack_dummy    0x000000000003a778     0x1000
                0x000000000003a778                _estack = .
 *(.stack*)
 .stack         0x000000000003a778     0x1000 built-in.o
                0x000000000003b778                _sstack = .
                0x0000000000070000                __StackTop = (ORIGIN (sram) + LENGTH (sram))
                0x000000000006f000                __StackLimit = (__StackTop - SIZEOF (.stack_dummy))
                [!provide]                        PROVIDE (__stack = __StackTop)
                0x0000000000000001                ASSERT ((__StackLimit >= __HeapLimit), region RAM overflowed with stack)
                0x0000000000000000                __ram_start = ORIGIN (sram)
                0x0000000000070000                __ram_end = (ORIGIN (sram) + LENGTH (sram))
                0x0000000000070000                __ram_nc_start = ORIGIN (sram_nc)
                0x00000000000c0000                __ram_nc_end = (ORIGIN (sram_nc) + LENGTH (sram_nc))
                0x000000000003b778                _end = .
                [!provide]                        PROVIDE (end = .)
LOAD built-in.o
OUTPUT(ast1030.elf elf32-littlearm)

.comment        0x0000000000000000       0x79
 .comment       0x0000000000000000       0x79 built-in.o
                                       0x2882 (size before relaxing)

.ARM.attributes
                0x0000000000000000       0x32
 .ARM.attributes
                0x0000000000000000       0x32 built-in.o

.noinit         0x0000000000000000        0x0
 .noinit        0x0000000000000000        0x0 built-in.o

.debug_aranges  0x0000000000000000      0xaa0
 .debug_aranges
                0x0000000000000000      0xaa0 built-in.o

.debug_info     0x0000000000000000    0x77087
 .debug_info    0x0000000000000000    0x77087 built-in.o

.debug_abbrev   0x0000000000000000     0xf168
 .debug_abbrev  0x0000000000000000     0xf168 built-in.o

.debug_line     0x0000000000000000    0x33163
 .debug_line    0x0000000000000000    0x33163 built-in.o

.debug_frame    0x0000000000000000     0x614c
 .debug_frame   0x0000000000000000     0x614c built-in.o

.debug_str      0x0000000000000000    0x100dd
 .debug_str     0x0000000000000000    0x100dd built-in.o
                                      0x42453 (size before relaxing)

.debug_loc      0x0000000000000000    0x2b321
 .debug_loc     0x0000000000000000    0x2b321 built-in.o

.debug_ranges   0x0000000000000000      0x488
 .debug_ranges  0x0000000000000000      0x488 built-in.o
